target datalayout = "e-m:e-p270:32:32-p271:32:32-p272:64:64-i64:64-i128:128-f80:128-n8:16:32:64-S128"
target triple = "x86_64-pc-linux-gnu"

@.str = private unnamed_addr constant [36 x i8] c"%s:%d: %s(): Assertion (%s) failed.\00", align 1

@slurm_xassert_failed = dso_local alias void (ptr, ptr, i32, ptr), ptr @__xassert_failed

; Function Attrs: nounwind uwtable
define dso_local void @__xassert_failed(ptr noundef %0, ptr noundef %1, i32 noundef %2, ptr noundef %3) #0 {
  %5 = alloca ptr, align 8
  %6 = alloca ptr, align 8
  %7 = alloca i32, align 4
  %8 = alloca ptr, align 8
  store ptr %0, ptr %5, align 8
  store ptr %1, ptr %6, align 8
  store i32 %2, ptr %7, align 4
  store ptr %3, ptr %8, align 8
  %9 = load ptr, ptr %6, align 8
  %10 = load i32, ptr %7, align 4
  %11 = load ptr, ptr %8, align 8
  %12 = load ptr, ptr %5, align 8
  %13 = call i32 (ptr, ...) @error(ptr noundef @.str, ptr noundef %9, i32 noundef %10, ptr noundef %11, ptr noundef %12)
  call void @log_flush()
  call void @abort() #3
  unreachable
}

declare i32 @error(ptr noundef, ...) #1

declare void @log_flush() #1

; Function Attrs: noreturn nounwind
declare void @abort() #2


!llvm.module.flags = !{!0, !1, !2, !3, !4, !5, !6, !7}

!0 = !{i32 7, !"Dwarf Version", i32 5}
!1 = !{i32 2, !"Debug Info Version", i32 3}
!2 = !{i32 1, !"wchar_size", i32 4}
!3 = !{i32 8, !"PIC Level", i32 2}
!4 = !{i32 7, !"PIE Level", i32 2}
!5 = !{i32 7, !"uwtable", i32 2}
!6 = !{i32 7, !"frame-pointer", i32 2}
!7 = !{i32 7, !"debug-info-assignment-tracking", i1 true}
